target datalayout = "e-m:e-p270:32:32-p271:32:32-p272:64:64-i64:64-i128:128-f80:128-n8:16:32:64-S128"
target triple = "x86_64-unknown-linux-gnu"

%union.pthread_mutex_t = type { %struct.__pthread_mutex_s }
%struct.__pthread_mutex_s = type { i32, i32, i32, i32, i32, i16, i16, %struct.__pthread_internal_list }
%struct.__pthread_internal_list = type { ptr, ptr }
%"class.std::__cxx11::basic_string" = type { %"struct.std::__cxx11::basic_string<char>::_Alloc_hider", i64, %union.anon.0 }
%"struct.std::__cxx11::basic_string<char>::_Alloc_hider" = type { ptr }
%union.anon.0 = type { i64, [8 x i8] }
%"class.OpenImageIO_v2_6_0::basic_string_view" = type { ptr, i64 }
%"class.OpenImageIO_v2_6_0::Filesystem::IOProxy" = type { ptr, %"class.std::__cxx11::basic_string", i64, i32, %"class.std::__cxx11::basic_string" }
%"class.OpenImageIO_v2_6_0::Filesystem::IOFile" = type { %"class.OpenImageIO_v2_6_0::Filesystem::IOProxy", ptr, i64, i8, %"class.std::mutex" }
%"class.std::mutex" = type { %"class.std::__mutex_base" }
%"class.std::__mutex_base" = type { %union.pthread_mutex_t }

@.str.39 = private unnamed_addr constant [1 x i8] zeroinitializer, align 1

; Function Attrs: mustprogress nounwind uwtable
define linkonce_odr noundef i64 @_ZNSt11char_traitsIcE6lengthEPKc(ptr noundef %__s) #4 comdat align 2 {
entry:
  %__s.addr = alloca ptr, align 8
  store ptr %__s, ptr %__s.addr, align 8
  %0 = load ptr, ptr %__s.addr, align 8
  %call = call i64 @strlen(ptr noundef %0) #3
  ret i64 %call
}

; Function Attrs: mustprogress nounwind uwtable
define linkonce_odr void @_ZNSt12__mutex_baseC2Ev(ptr noundef nonnull align 8 dereferenceable(40) %this) unnamed_addr #4 comdat align 2 {
entry:
  %this.addr = alloca ptr, align 8
  store ptr %this, ptr %this.addr, align 8
  %this1 = load ptr, ptr %this.addr, align 8
  %_M_mutex = getelementptr inbounds %"class.std::__mutex_base", ptr %this1, i32 0, i32 0
  call void @llvm.memset.p0.i64(ptr align 8 %_M_mutex, i8 0, i64 40, i1 false)
  %__kind = getelementptr inbounds %struct.__pthread_mutex_s, ptr %_M_mutex, i32 0, i32 4
  store i32 0, ptr %__kind, align 8
  ret void
}

; Function Attrs: noreturn nounwind uwtable
define linkonce_odr hidden void @__clang_call_terminate(ptr noundef %0) #7 comdat {
  %2 = call ptr @__cxa_begin_catch(ptr %0) #3
  call void @_ZSt9terminatev() #21
  unreachable
}

; Function Attrs: mustprogress uwtable
define linkonce_odr hidden noundef i64 @_ZN18OpenImageIO_v2_6_017basic_string_viewIcSt11char_traitsIcEE8cestrlenEPKc(ptr noundef %chars) #6 comdat align 2 {
entry:
  %chars.addr = alloca ptr, align 8
  store ptr %chars, ptr %chars.addr, align 8
  %0 = load ptr, ptr %chars.addr, align 8
  %call = call noundef i64 @_ZNSt11char_traitsIcE6lengthEPKc(ptr noundef %0)
  ret i64 %call
}

; Function Attrs: mustprogress nounwind uwtable
define linkonce_odr void @_ZN18OpenImageIO_v2_6_010Filesystem7IOProxyD2Ev(ptr noundef nonnull align 8 dereferenceable(88) %this) unnamed_addr #4 comdat align 2 {
entry:
  %this.addr = alloca ptr, align 8
  store ptr %this, ptr %this.addr, align 8
  %this1 = load ptr, ptr %this.addr, align 8
  store ptr getelementptr inbounds ({ [15 x ptr] }, ptr @_ZTVN18OpenImageIO_v2_6_010Filesystem7IOProxyE, i32 0, i32 0, i32 2), ptr %this1, align 8
  %m_error = getelementptr inbounds %"class.OpenImageIO_v2_6_0::Filesystem::IOProxy", ptr %this1, i32 0, i32 4
  call void @_ZNSt7__cxx1112basic_stringIcSt11char_traitsIcESaIcEED1Ev(ptr noundef nonnull align 8 dereferenceable(32) %m_error) #3
  %m_filename = getelementptr inbounds %"class.OpenImageIO_v2_6_0::Filesystem::IOProxy", ptr %this1, i32 0, i32 1
  call void @_ZNSt7__cxx1112basic_stringIcSt11char_traitsIcESaIcEED1Ev(ptr noundef nonnull align 8 dereferenceable(32) %m_filename) #3
  ret void
}

; Function Attrs: mustprogress uwtable
define noundef i32 @_ZN18OpenImageIO_v2_6_010Filesystem5fseekEP8_IO_FILEli(ptr noundef %file, i64 noundef %offset, i32 noundef %whence) #6 {
entry:
  %file.addr = alloca ptr, align 8
  %offset.addr = alloca i64, align 8
  %whence.addr = alloca i32, align 4
  store ptr %file, ptr %file.addr, align 8
  store i64 %offset, ptr %offset.addr, align 8
  store i32 %whence, ptr %whence.addr, align 4
  %0 = load ptr, ptr %file.addr, align 8
  %1 = load i64, ptr %offset.addr, align 8
  %2 = load i32, ptr %whence.addr, align 4
  %call = call i32 @fseeko(ptr noundef %0, i64 noundef %1, i32 noundef %2)
  ret i32 %call
}

; Function Attrs: mustprogress uwtable
define noundef i64 @_ZN18OpenImageIO_v2_6_010Filesystem5ftellEP8_IO_FILE(ptr noundef %file) #6 {
entry:
  %file.addr = alloca ptr, align 8
  store ptr %file, ptr %file.addr, align 8
  %0 = load ptr, ptr %file.addr, align 8
  %call = call i64 @ftello(ptr noundef %0)
  ret i64 %call
}

; Function Attrs: mustprogress nounwind uwtable
define linkonce_odr void @_ZNSt5mutexC2Ev(ptr noundef nonnull align 8 dereferenceable(40) %this) unnamed_addr #4 comdat align 2 {
entry:
  %this.addr = alloca ptr, align 8
  store ptr %this, ptr %this.addr, align 8
  %this1 = load ptr, ptr %this.addr, align 8
  call void @_ZNSt12__mutex_baseC2Ev(ptr noundef nonnull align 8 dereferenceable(40) %this1) #3
  ret void
}

; Function Attrs: mustprogress nounwind uwtable
define linkonce_odr hidden void @_ZN18OpenImageIO_v2_6_017basic_string_viewIcSt11char_traitsIcEEC2EPKc(ptr noundef nonnull align 8 dereferenceable(16) %this, ptr noundef %chars) unnamed_addr #4 comdat align 2 personality ptr @__gxx_personality_v0 {
entry:
  %this.addr = alloca ptr, align 8
  %chars.addr = alloca ptr, align 8
  store ptr %this, ptr %this.addr, align 8
  store ptr %chars, ptr %chars.addr, align 8
  %this1 = load ptr, ptr %this.addr, align 8
  %m_chars = getelementptr inbounds %"class.OpenImageIO_v2_6_0::basic_string_view", ptr %this1, i32 0, i32 0
  %0 = load ptr, ptr %chars.addr, align 8
  store ptr %0, ptr %m_chars, align 8
  %m_len = getelementptr inbounds %"class.OpenImageIO_v2_6_0::basic_string_view", ptr %this1, i32 0, i32 1
  %1 = load ptr, ptr %chars.addr, align 8
  %tobool = icmp ne ptr %1, null
  br i1 %tobool, label %cond.true, label %cond.false

cond.true:                                        ; preds = %entry
  %2 = load ptr, ptr %chars.addr, align 8
  %call = invoke noundef i64 @_ZN18OpenImageIO_v2_6_017basic_string_viewIcSt11char_traitsIcEE8cestrlenEPKc(ptr noundef %2)
          to label %invoke.cont unwind label %terminate.lpad

invoke.cont:                                      ; preds = %cond.true
  br label %cond.end

cond.false:                                       ; preds = %entry
  br label %cond.end

cond.end:                                         ; preds = %cond.false, %invoke.cont
  %cond = phi i64 [ %call, %invoke.cont ], [ 0, %cond.false ]
  store i64 %cond, ptr %m_len, align 8
  ret void

terminate.lpad:                                   ; preds = %cond.true
  %3 = landingpad { ptr, i32 }
          catch ptr null
  %4 = extractvalue { ptr, i32 } %3, 0
  call void @__clang_call_terminate(ptr %4) #21
  unreachable
}

; Function Attrs: mustprogress uwtable
define void @_ZN18OpenImageIO_v2_6_010Filesystem6IOFileC2EP8_IO_FILENS0_7IOProxy4ModeE(ptr noundef nonnull align 8 dereferenceable(152) %this, ptr noundef %file, i32 noundef %mode) unnamed_addr #6 align 2 personality ptr @__gxx_personality_v0 {
entry:
  %this.addr = alloca ptr, align 8
  %file.addr = alloca ptr, align 8
  %mode.addr = alloca i32, align 4
  %agg.tmp = alloca %"class.OpenImageIO_v2_6_0::basic_string_view", align 8
  %exn.slot = alloca ptr, align 8
  %ehselector.slot = alloca i32, align 4
  store ptr %this, ptr %this.addr, align 8
  store ptr %file, ptr %file.addr, align 8
  store i32 %mode, ptr %mode.addr, align 4
  %this1 = load ptr, ptr %this.addr, align 8
  call void @_ZN18OpenImageIO_v2_6_017basic_string_viewIcSt11char_traitsIcEEC2EPKc(ptr noundef nonnull align 8 dereferenceable(16) %agg.tmp, ptr noundef @.str.39) #3
  %0 = load i32, ptr %mode.addr, align 4
  call void @_ZN18OpenImageIO_v2_6_010Filesystem7IOProxyC2ENS_17basic_string_viewIcSt11char_traitsIcEEENS1_4ModeE(ptr noundef nonnull align 8 dereferenceable(88) %this1, ptr noundef %agg.tmp, i32 noundef %0)
  store ptr getelementptr inbounds ({ [15 x ptr] }, ptr @_ZTVN18OpenImageIO_v2_6_010Filesystem6IOFileE, i32 0, i32 0, i32 2), ptr %this1, align 8
  %m_file = getelementptr inbounds %"class.OpenImageIO_v2_6_0::Filesystem::IOFile", ptr %this1, i32 0, i32 1
  %1 = load ptr, ptr %file.addr, align 8
  store ptr %1, ptr %m_file, align 8
  %m_size = getelementptr inbounds %"class.OpenImageIO_v2_6_0::Filesystem::IOFile", ptr %this1, i32 0, i32 2
  store i64 0, ptr %m_size, align 8
  %m_auto_close = getelementptr inbounds %"class.OpenImageIO_v2_6_0::Filesystem::IOFile", ptr %this1, i32 0, i32 3
  store i8 0, ptr %m_auto_close, align 8
  %m_mutex = getelementptr inbounds %"class.OpenImageIO_v2_6_0::Filesystem::IOFile", ptr %this1, i32 0, i32 4
  call void @_ZNSt5mutexC2Ev(ptr noundef nonnull align 8 dereferenceable(40) %m_mutex) #3
  %m_mode = getelementptr inbounds %"class.OpenImageIO_v2_6_0::Filesystem::IOProxy", ptr %this1, i32 0, i32 3
  %2 = load i32, ptr %m_mode, align 8
  %cmp = icmp eq i32 %2, 114
  br i1 %cmp, label %if.then, label %if.end

if.then:                                          ; preds = %entry
  %m_file2 = getelementptr inbounds %"class.OpenImageIO_v2_6_0::Filesystem::IOFile", ptr %this1, i32 0, i32 1
  %3 = load ptr, ptr %m_file2, align 8
  %call = invoke noundef i64 @_ZN18OpenImageIO_v2_6_010Filesystem5ftellEP8_IO_FILE(ptr noundef %3)
          to label %invoke.cont unwind label %lpad

invoke.cont:                                      ; preds = %if.then
  %m_pos = getelementptr inbounds %"class.OpenImageIO_v2_6_0::Filesystem::IOProxy", ptr %this1, i32 0, i32 2
  store i64 %call, ptr %m_pos, align 8
  %m_file3 = getelementptr inbounds %"class.OpenImageIO_v2_6_0::Filesystem::IOFile", ptr %this1, i32 0, i32 1
  %4 = load ptr, ptr %m_file3, align 8
  %call5 = invoke noundef i32 @_ZN18OpenImageIO_v2_6_010Filesystem5fseekEP8_IO_FILEli(ptr noundef %4, i64 noundef 0, i32 noundef 2)
          to label %invoke.cont4 unwind label %lpad

invoke.cont4:                                     ; preds = %invoke.cont
  %m_file6 = getelementptr inbounds %"class.OpenImageIO_v2_6_0::Filesystem::IOFile", ptr %this1, i32 0, i32 1
  %5 = load ptr, ptr %m_file6, align 8
  %call8 = invoke noundef i64 @_ZN18OpenImageIO_v2_6_010Filesystem5ftellEP8_IO_FILE(ptr noundef %5)
          to label %invoke.cont7 unwind label %lpad

invoke.cont7:                                     ; preds = %invoke.cont4
  %m_size9 = getelementptr inbounds %"class.OpenImageIO_v2_6_0::Filesystem::IOFile", ptr %this1, i32 0, i32 2
  store i64 %call8, ptr %m_size9, align 8
  %m_file10 = getelementptr inbounds %"class.OpenImageIO_v2_6_0::Filesystem::IOFile", ptr %this1, i32 0, i32 1
  %6 = load ptr, ptr %m_file10, align 8
  %m_pos11 = getelementptr inbounds %"class.OpenImageIO_v2_6_0::Filesystem::IOProxy", ptr %this1, i32 0, i32 2
  %7 = load i64, ptr %m_pos11, align 8
  %call13 = invoke noundef i32 @_ZN18OpenImageIO_v2_6_010Filesystem5fseekEP8_IO_FILEli(ptr noundef %6, i64 noundef %7, i32 noundef 0)
          to label %invoke.cont12 unwind label %lpad

invoke.cont12:                                    ; preds = %invoke.cont7
  br label %if.end

lpad:                                             ; preds = %invoke.cont7, %invoke.cont4, %invoke.cont, %if.then
  %8 = landingpad { ptr, i32 }
          cleanup
  %9 = extractvalue { ptr, i32 } %8, 0
  store ptr %9, ptr %exn.slot, align 8
  %10 = extractvalue { ptr, i32 } %8, 1
  store i32 %10, ptr %ehselector.slot, align 4
  call void @_ZN18OpenImageIO_v2_6_010Filesystem7IOProxyD2Ev(ptr noundef nonnull align 8 dereferenceable(88) %this1) #3
  br label %eh.resume

if.end:                                           ; preds = %invoke.cont12, %entry
  ret void

eh.resume:                                        ; preds = %lpad
  %exn = load ptr, ptr %exn.slot, align 8
  %sel = load i32, ptr %ehselector.slot, align 4
  %lpad.val = insertvalue { ptr, i32 } poison, ptr %exn, 0
  %lpad.val14 = insertvalue { ptr, i32 } %lpad.val, i32 %sel, 1
  resume { ptr, i32 } %lpad.val14
}