; Function Attrs: mustprogress uwtable
define void @_ZN18OpenImageIO_v2_6_010Filesystem6IOFileC2EP8_IO_FILENS0_7IOProxy4ModeE(ptr noundef nonnull align 8 dereferenceable(152) %this, ptr noundef %file, i32 noundef %mode) unnamed_addr #5 align 2 personality ptr @__gxx_personality_v0 {
entry:
  %agg.tmp = alloca %"class.OpenImageIO_v2_6_0::basic_string_view", align 8
  store ptr @.str.39, ptr %agg.tmp, align 8
  %m_len.i = getelementptr inbounds i8, ptr %agg.tmp, i64 8
  store i64 0, ptr %m_len.i, align 8
  call void @_ZN18OpenImageIO_v2_6_010Filesystem7IOProxyC2ENS_17basic_string_viewIcSt11char_traitsIcEEENS1_4ModeE(ptr noundef nonnull align 8 dereferenceable(88) %this, ptr noundef nonnull %agg.tmp, i32 noundef %mode)
  store ptr getelementptr inbounds ({ [15 x ptr] }, ptr @_ZTVN18OpenImageIO_v2_6_010Filesystem6IOFileE, i64 0, i32 0, i64 2), ptr %this, align 8
  %m_file = getelementptr inbounds i8, ptr %this, i64 88
  store ptr %file, ptr %m_file, align 8
  %m_size = getelementptr inbounds i8, ptr %this, i64 96
  store i64 0, ptr %m_size, align 8
  %m_auto_close = getelementptr inbounds i8, ptr %this, i64 104
  store i8 0, ptr %m_auto_close, align 8
  %m_mutex = getelementptr inbounds i8, ptr %this, i64 112
  call void @llvm.memset.p0.i64(ptr noundef nonnull align 8 dereferenceable(40) %m_mutex, i8 0, i64 40, i1 false)
  %m_mode = getelementptr inbounds i8, ptr %this, i64 48
  %0 = load i32, ptr %m_mode, align 8
  %cmp = icmp eq i32 %0, 114
  br i1 %cmp, label %invoke.cont7, label %if.end

invoke.cont7:                                     ; preds = %entry
  %call.i = call noundef i64 @ftello(ptr noundef %file)
  %m_pos = getelementptr inbounds i8, ptr %this, i64 40
  store i64 %call.i, ptr %m_pos, align 8
  %1 = load ptr, ptr %m_file, align 8
  %call.i1 = call noundef i32 @fseeko(ptr noundef %1, i64 noundef 0, i32 noundef 2)
  %2 = load ptr, ptr %m_file, align 8
  %call.i2 = call noundef i64 @ftello(ptr noundef %2)
  store i64 %call.i2, ptr %m_size, align 8
  %3 = load ptr, ptr %m_file, align 8
  %4 = load i64, ptr %m_pos, align 8
  %call.i3 = call noundef i32 @fseeko(ptr noundef %3, i64 noundef %4, i32 noundef 0)
  br label %if.end

if.end:                                           ; preds = %invoke.cont7, %entry
  ret void
}